; Function Attrs: nofree nounwind uwtable
define void @ff_write_pass1_stats(ptr noundef readonly captures(none) %0) local_unnamed_addr #0 {
  %2 = getelementptr inbounds nuw i8, ptr %0, i64 472
  %3 = load ptr, ptr %2, align 8, !tbaa !4
  %4 = getelementptr inbounds nuw i8, ptr %3, i64 496
  %5 = load ptr, ptr %4, align 8, !tbaa !45
  %6 = getelementptr inbounds nuw i8, ptr %0, i64 1208
  %7 = load ptr, ptr %6, align 8, !tbaa !58
  %8 = getelementptr inbounds nuw i8, ptr %7, i64 136
  %9 = load i32, ptr %8, align 8, !tbaa !59
  %10 = getelementptr inbounds nuw i8, ptr %7, i64 140
  %11 = load i32, ptr %10, align 4, !tbaa !62
  %12 = getelementptr inbounds nuw i8, ptr %0, i64 1480
  %13 = load i32, ptr %12, align 8, !tbaa !63
  %14 = load ptr, ptr %7, align 8, !tbaa !64
  %15 = getelementptr inbounds nuw i8, ptr %14, i64 160
  %16 = load i32, ptr %15, align 8, !tbaa !65
  %17 = getelementptr inbounds nuw i8, ptr %0, i64 6740
  %18 = load i32, ptr %17, align 4, !tbaa !70
  %19 = getelementptr inbounds nuw i8, ptr %0, i64 6744
  %20 = load i32, ptr %19, align 8, !tbaa !71
  %21 = getelementptr inbounds nuw i8, ptr %0, i64 6736
  %22 = load i32, ptr %21, align 8, !tbaa !72
  %23 = getelementptr inbounds nuw i8, ptr %0, i64 6752
  %24 = load i32, ptr %23, align 8, !tbaa !73
  %25 = getelementptr inbounds nuw i8, ptr %0, i64 6304
  %26 = load i32, ptr %25, align 8, !tbaa !74
  %27 = getelementptr inbounds nuw i8, ptr %0, i64 6308
  %28 = load i32, ptr %27, align 4, !tbaa !75
  %29 = getelementptr inbounds nuw i8, ptr %0, i64 8088
  %30 = load i64, ptr %29, align 8, !tbaa !76
  %31 = getelementptr inbounds nuw i8, ptr %0, i64 8080
  %32 = load i64, ptr %31, align 8, !tbaa !83
  %33 = getelementptr inbounds nuw i8, ptr %0, i64 6748
  %34 = load i32, ptr %33, align 4, !tbaa !84
  %35 = getelementptr inbounds nuw i8, ptr %0, i64 7548
  %36 = load i32, ptr %35, align 4, !tbaa !85
  %37 = tail call i32 (ptr, i64, ptr, ...) @snprintf(ptr noundef nonnull dereferenceable(1) %5, i64 noundef 256, ptr noundef nonnull @.str, i32 noundef %9, i32 noundef %11, i32 noundef %13, i32 noundef %16, i32 noundef %18, i32 noundef %20, i32 noundef %22, i32 noundef %24, i32 noundef %26, i32 noundef %28, i64 noundef %30, i64 noundef %32, i32 noundef %34, i32 noundef %36) #13
  ret void
}